target datalayout = "e-m:e-p270:32:32-p271:32:32-p272:64:64-i64:64-i128:128-f80:128-n8:16:32:64-S128"
target triple = "x86_64-pc-linux-gnu"

%class.btSpinMutex = type { i32 }
%struct.ThreadsafeCounter = type { i32, %class.btSpinMutex }
%class.btITaskScheduler = type <{ ptr, ptr, i32, i8, [3 x i8] }>

@_ZL14gThreadCounter = internal global %struct.ThreadsafeCounter zeroinitializer, align 4

; Function Attrs: mustprogress nounwind uwtable
define dso_local void @_ZN16btITaskScheduler8activateEv(ptr noundef nonnull align 8 dereferenceable(21) %0) unnamed_addr #1 align 2 {
  %2 = alloca ptr, align 8
  store ptr %0, ptr %2, align 8, !tbaa !20
  %3 = load ptr, ptr %2, align 8
  %4 = getelementptr inbounds nuw %class.btITaskScheduler, ptr %3, i32 0, i32 3
  %5 = load i8, ptr %4, align 4, !tbaa !30, !range !31, !noundef !32
  %6 = trunc i8 %5 to i1
  br i1 %6, label %11, label %7

7:                                                ; preds = %1
  %8 = getelementptr inbounds nuw %class.btITaskScheduler, ptr %3, i32 0, i32 2
  %9 = load i32, ptr %8, align 8, !tbaa !29
  store i32 %9, ptr @_ZL14gThreadCounter, align 4, !tbaa !18
  %10 = getelementptr inbounds nuw %class.btITaskScheduler, ptr %3, i32 0, i32 3
  store i8 1, ptr %10, align 4, !tbaa !30
  br label %11

11:                                               ; preds = %7, %1
  ret void
}